target datalayout = "e-m:e-p270:32:32-p271:32:32-p272:64:64-i64:64-i128:128-f80:128-n8:16:32:64-S128"
target triple = "x86_64-pc-linux-gnu"

; Function Attrs: alwaysinline nounwind uwtable
define internal i64 @lj_carith_ror64(i64 noundef %0, i32 noundef %1) #2 {
  %3 = alloca i64, align 8
  %4 = alloca i32, align 4
  store i64 %0, ptr %3, align 8, !tbaa !58
  store i32 %1, ptr %4, align 4, !tbaa !9
  %5 = load i64, ptr %3, align 8, !tbaa !58
  %6 = load i32, ptr %4, align 4, !tbaa !9
  %7 = and i32 %6, 63
  %8 = sub nsw i32 0, %7
  %9 = sext i32 %8 to i64
  %10 = and i64 %9, 63
  %11 = shl i64 %5, %10
  %12 = load i64, ptr %3, align 8, !tbaa !58
  %13 = load i32, ptr %4, align 4, !tbaa !9
  %14 = and i32 %13, 63
  %15 = zext i32 %14 to i64
  %16 = lshr i64 %12, %15
  %17 = or i64 %11, %16
  ret i64 %17
}

; Function Attrs: alwaysinline nounwind uwtable
define internal i64 @lj_carith_rol64(i64 noundef %0, i32 noundef %1) #2 {
  %3 = alloca i64, align 8
  %4 = alloca i32, align 4
  store i64 %0, ptr %3, align 8, !tbaa !58
  store i32 %1, ptr %4, align 4, !tbaa !9
  %5 = load i64, ptr %3, align 8, !tbaa !58
  %6 = load i32, ptr %4, align 4, !tbaa !9
  %7 = and i32 %6, 63
  %8 = zext i32 %7 to i64
  %9 = shl i64 %5, %8
  %10 = load i64, ptr %3, align 8, !tbaa !58
  %11 = load i32, ptr %4, align 4, !tbaa !9
  %12 = and i32 %11, 63
  %13 = sub nsw i32 0, %12
  %14 = sext i32 %13 to i64
  %15 = and i64 %14, 63
  %16 = lshr i64 %10, %15
  %17 = or i64 %9, %16
  ret i64 %17
}

; Function Attrs: alwaysinline nounwind uwtable
define internal i64 @lj_carith_sar64(i64 noundef %0, i32 noundef %1) #2 {
  %3 = alloca i64, align 8
  %4 = alloca i32, align 4
  store i64 %0, ptr %3, align 8, !tbaa !58
  store i32 %1, ptr %4, align 4, !tbaa !9
  %5 = load i64, ptr %3, align 8, !tbaa !58
  %6 = load i32, ptr %4, align 4, !tbaa !9
  %7 = and i32 %6, 63
  %8 = zext i32 %7 to i64
  %9 = ashr i64 %5, %8
  ret i64 %9
}

; Function Attrs: alwaysinline nounwind uwtable
define internal i64 @lj_carith_shr64(i64 noundef %0, i32 noundef %1) #2 {
  %3 = alloca i64, align 8
  %4 = alloca i32, align 4
  store i64 %0, ptr %3, align 8, !tbaa !58
  store i32 %1, ptr %4, align 4, !tbaa !9
  %5 = load i64, ptr %3, align 8, !tbaa !58
  %6 = load i32, ptr %4, align 4, !tbaa !9
  %7 = and i32 %6, 63
  %8 = zext i32 %7 to i64
  %9 = lshr i64 %5, %8
  ret i64 %9
}

; Function Attrs: alwaysinline nounwind uwtable
define internal i64 @lj_carith_shl64(i64 noundef %0, i32 noundef %1) #2 {
  %3 = alloca i64, align 8
  %4 = alloca i32, align 4
  store i64 %0, ptr %3, align 8, !tbaa !58
  store i32 %1, ptr %4, align 4, !tbaa !9
  %5 = load i64, ptr %3, align 8, !tbaa !58
  %6 = load i32, ptr %4, align 4, !tbaa !9
  %7 = and i32 %6, 63
  %8 = zext i32 %7 to i64
  %9 = shl i64 %5, %8
  ret i64 %9
}

; Function Attrs: nounwind uwtable
define hidden i64 @lj_carith_shift64(i64 noundef %0, i32 noundef %1, i32 noundef %2) #0 {
  %4 = alloca i64, align 8
  %5 = alloca i32, align 4
  %6 = alloca i32, align 4
  store i64 %0, ptr %4, align 8, !tbaa !58
  store i32 %1, ptr %5, align 4, !tbaa !9
  store i32 %2, ptr %6, align 4, !tbaa !9
  %7 = load i32, ptr %6, align 4, !tbaa !9
  switch i32 %7, label %28 [
    i32 0, label %8
    i32 1, label %12
    i32 2, label %16
    i32 3, label %20
    i32 4, label %24
  ]

8:                                                ; preds = %3
  %9 = load i64, ptr %4, align 8, !tbaa !58
  %10 = load i32, ptr %5, align 4, !tbaa !9
  %11 = call i64 @lj_carith_shl64(i64 noundef %9, i32 noundef %10)
  store i64 %11, ptr %4, align 8, !tbaa !58
  br label %29

12:                                               ; preds = %3
  %13 = load i64, ptr %4, align 8, !tbaa !58
  %14 = load i32, ptr %5, align 4, !tbaa !9
  %15 = call i64 @lj_carith_shr64(i64 noundef %13, i32 noundef %14)
  store i64 %15, ptr %4, align 8, !tbaa !58
  br label %29

16:                                               ; preds = %3
  %17 = load i64, ptr %4, align 8, !tbaa !58
  %18 = load i32, ptr %5, align 4, !tbaa !9
  %19 = call i64 @lj_carith_sar64(i64 noundef %17, i32 noundef %18)
  store i64 %19, ptr %4, align 8, !tbaa !58
  br label %29

20:                                               ; preds = %3
  %21 = load i64, ptr %4, align 8, !tbaa !58
  %22 = load i32, ptr %5, align 4, !tbaa !9
  %23 = call i64 @lj_carith_rol64(i64 noundef %21, i32 noundef %22)
  store i64 %23, ptr %4, align 8, !tbaa !58
  br label %29

24:                                               ; preds = %3
  %25 = load i64, ptr %4, align 8, !tbaa !58
  %26 = load i32, ptr %5, align 4, !tbaa !9
  %27 = call i64 @lj_carith_ror64(i64 noundef %25, i32 noundef %26)
  store i64 %27, ptr %4, align 8, !tbaa !58
  br label %29

28:                                               ; preds = %3
  br label %29

29:                                               ; preds = %28, %24, %20, %16, %12, %8
  %30 = load i64, ptr %4, align 8, !tbaa !58
  ret i64 %30
}