; Function Attrs: mustprogress nofree norecurse nosync nounwind willreturn memory(none) uwtable
define hidden i64 @lj_carith_shift64(i64 noundef %0, i32 noundef %1, i32 noundef %2) local_unnamed_addr #2 {
  switch i32 %2, label %22 [
    i32 0, label %4
    i32 1, label %8
    i32 2, label %12
    i32 3, label %16
    i32 4, label %19
  ]

4:                                                ; preds = %3
  %5 = and i32 %1, 63
  %6 = zext nneg i32 %5 to i64
  %7 = shl i64 %0, %6
  br label %22

8:                                                ; preds = %3
  %9 = and i32 %1, 63
  %10 = zext nneg i32 %9 to i64
  %11 = lshr i64 %0, %10
  br label %22

12:                                               ; preds = %3
  %13 = and i32 %1, 63
  %14 = zext nneg i32 %13 to i64
  %15 = ashr i64 %0, %14
  br label %22

16:                                               ; preds = %3
  %17 = zext i32 %1 to i64
  %18 = tail call i64 @llvm.fshl.i64(i64 %0, i64 %0, i64 %17)
  br label %22

19:                                               ; preds = %3
  %20 = zext i32 %1 to i64
  %21 = tail call i64 @llvm.fshr.i64(i64 %0, i64 %0, i64 %20)
  br label %22

22:                                               ; preds = %3, %19, %16, %12, %8, %4
  %.0 = phi i64 [ %0, %3 ], [ %21, %19 ], [ %18, %16 ], [ %15, %12 ], [ %11, %8 ], [ %7, %4 ]
  ret i64 %.0
}